; ModuleID = '14/1081.c'
source_filename = "14/1081.c"
target datalayout = "e-m:e-p270:32:32-p271:32:32-p272:64:64-i64:64-f80:128-n8:16:32:64-S128"
target triple = "x86_64-pc-linux-gnu"

@.str = private unnamed_addr constant [3 x i8] c"%d\00", align 1
@.str.1 = private unnamed_addr constant [7 x i8] c"%d%d%d\00", align 1
@.str.2 = private unnamed_addr constant [7 x i8] c"%d %d\0A\00", align 1

; Function Attrs: noinline nounwind uwtable
define dso_local i32 @main() #0 {
  %1 = alloca i32, align 4
  %2 = alloca i32, align 4
  %3 = alloca [100000 x i32], align 16
  %4 = alloca [100000 x i32], align 16
  %5 = alloca [100000 x i32], align 16
  %6 = alloca [100000 x i32], align 16
  %7 = alloca i32, align 4
  %8 = alloca i32, align 4
  %9 = alloca i32, align 4
  %10 = alloca i32, align 4
  %11 = alloca i32, align 4
  %12 = alloca i32, align 4
  %13 = alloca i32, align 4
  store i32 0, i32* %1, align 4
  %14 = call i32 (i8*, ...) @__isoc99_scanf(i8* getelementptr inbounds ([3 x i8], [3 x i8]* @.str, i64 0, i64 0), i32* %2)
  store i32 0, i32* %7, align 4
  br label %15

15:                                               ; preds = %42, %0
  %16 = load i32, i32* %7, align 4
  %17 = load i32, i32* %2, align 4
  %18 = icmp slt i32 %16, %17
  br i1 %18, label %19, label %45

19:                                               ; preds = %15
  %20 = load i32, i32* %7, align 4
  %21 = sext i32 %20 to i64
  %22 = getelementptr inbounds [100000 x i32], [100000 x i32]* %3, i64 0, i64 %21
  %23 = load i32, i32* %7, align 4
  %24 = sext i32 %23 to i64
  %25 = getelementptr inbounds [100000 x i32], [100000 x i32]* %4, i64 0, i64 %24
  %26 = load i32, i32* %7, align 4
  %27 = sext i32 %26 to i64
  %28 = getelementptr inbounds [100000 x i32], [100000 x i32]* %5, i64 0, i64 %27
  %29 = call i32 (i8*, ...) @__isoc99_scanf(i8* getelementptr inbounds ([7 x i8], [7 x i8]* @.str.1, i64 0, i64 0), i32* %22, i32* %25, i32* %28)
  %30 = load i32, i32* %7, align 4
  %31 = sext i32 %30 to i64
  %32 = getelementptr inbounds [100000 x i32], [100000 x i32]* %4, i64 0, i64 %31
  %33 = load i32, i32* %32, align 4
  %34 = load i32, i32* %7, align 4
  %35 = sext i32 %34 to i64
  %36 = getelementptr inbounds [100000 x i32], [100000 x i32]* %5, i64 0, i64 %35
  %37 = load i32, i32* %36, align 4
  %38 = add nsw i32 %33, %37
  %39 = load i32, i32* %7, align 4
  %40 = sext i32 %39 to i64
  %41 = getelementptr inbounds [100000 x i32], [100000 x i32]* %6, i64 0, i64 %40
  store i32 %38, i32* %41, align 4
  br label %42

42:                                               ; preds = %19
  %43 = load i32, i32* %7, align 4
  %44 = add nsw i32 %43, 1
  store i32 %44, i32* %7, align 4
  br label %15

45:                                               ; preds = %15
  store i32 0, i32* %7, align 4
  store i32 0, i32* %8, align 4
  %46 = getelementptr inbounds [100000 x i32], [100000 x i32]* %3, i64 0, i64 0
  %47 = load i32, i32* %46, align 16
  store i32 %47, i32* %11, align 4
  br label %48

48:                                               ; preds = %69, %45
  %49 = load i32, i32* %7, align 4
  %50 = load i32, i32* %2, align 4
  %51 = icmp slt i32 %49, %50
  br i1 %51, label %52, label %72

52:                                               ; preds = %48
  %53 = load i32, i32* %7, align 4
  %54 = sext i32 %53 to i64
  %55 = getelementptr inbounds [100000 x i32], [100000 x i32]* %6, i64 0, i64 %54
  %56 = load i32, i32* %55, align 4
  %57 = load i32, i32* %8, align 4
  %58 = icmp sgt i32 %56, %57
  br i1 %58, label %59, label %68

59:                                               ; preds = %52
  %60 = load i32, i32* %7, align 4
  %61 = sext i32 %60 to i64
  %62 = getelementptr inbounds [100000 x i32], [100000 x i32]* %6, i64 0, i64 %61
  %63 = load i32, i32* %62, align 4
  store i32 %63, i32* %8, align 4
  %64 = load i32, i32* %7, align 4
  %65 = sext i32 %64 to i64
  %66 = getelementptr inbounds [100000 x i32], [100000 x i32]* %3, i64 0, i64 %65
  %67 = load i32, i32* %66, align 4
  store i32 %67, i32* %11, align 4
  br label %68

68:                                               ; preds = %59, %52
  br label %69

69:                                               ; preds = %68
  %70 = load i32, i32* %7, align 4
  %71 = add nsw i32 %70, 1
  store i32 %71, i32* %7, align 4
  br label %48

72:                                               ; preds = %48
  %73 = load i32, i32* %11, align 4
  %74 = load i32, i32* %8, align 4
  %75 = call i32 (i8*, ...) @printf(i8* getelementptr inbounds ([7 x i8], [7 x i8]* @.str.2, i64 0, i64 0), i32 %73, i32 %74)
  store i32 0, i32* %7, align 4
  store i32 0, i32* %9, align 4
  %76 = getelementptr inbounds [100000 x i32], [100000 x i32]* %3, i64 0, i64 0
  %77 = load i32, i32* %76, align 16
  store i32 %77, i32* %12, align 4
  br label %78

78:                                               ; preds = %107, %72
  %79 = load i32, i32* %7, align 4
  %80 = load i32, i32* %2, align 4
  %81 = icmp slt i32 %79, %80
  br i1 %81, label %82, label %110

82:                                               ; preds = %78
  %83 = load i32, i32* %7, align 4
  %84 = sext i32 %83 to i64
  %85 = getelementptr inbounds [100000 x i32], [100000 x i32]* %3, i64 0, i64 %84
  %86 = load i32, i32* %85, align 4
  %87 = load i32, i32* %11, align 4
  %88 = icmp eq i32 %86, %87
  br i1 %88, label %89, label %90

89:                                               ; preds = %82
  br label %107

90:                                               ; preds = %82
  %91 = load i32, i32* %7, align 4
  %92 = sext i32 %91 to i64
  %93 = getelementptr inbounds [100000 x i32], [100000 x i32]* %6, i64 0, i64 %92
  %94 = load i32, i32* %93, align 4
  %95 = load i32, i32* %9, align 4
  %96 = icmp sgt i32 %94, %95
  br i1 %96, label %97, label %106

97:                                               ; preds = %90
  %98 = load i32, i32* %7, align 4
  %99 = sext i32 %98 to i64
  %100 = getelementptr inbounds [100000 x i32], [100000 x i32]* %6, i64 0, i64 %99
  %101 = load i32, i32* %100, align 4
  store i32 %101, i32* %9, align 4
  %102 = load i32, i32* %7, align 4
  %103 = sext i32 %102 to i64
  %104 = getelementptr inbounds [100000 x i32], [100000 x i32]* %3, i64 0, i64 %103
  %105 = load i32, i32* %104, align 4
  store i32 %105, i32* %12, align 4
  br label %106

106:                                              ; preds = %97, %90
  br label %107

107:                                              ; preds = %106, %89
  %108 = load i32, i32* %7, align 4
  %109 = add nsw i32 %108, 1
  store i32 %109, i32* %7, align 4
  br label %78

110:                                              ; preds = %78
  %111 = load i32, i32* %12, align 4
  %112 = load i32, i32* %9, align 4
  %113 = call i32 (i8*, ...) @printf(i8* getelementptr inbounds ([7 x i8], [7 x i8]* @.str.2, i64 0, i64 0), i32 %111, i32 %112)
  store i32 0, i32* %7, align 4
  store i32 0, i32* %10, align 4
  %114 = getelementptr inbounds [100000 x i32], [100000 x i32]* %3, i64 0, i64 0
  %115 = load i32, i32* %114, align 16
  store i32 %115, i32* %13, align 4
  br label %116

116:                                              ; preds = %152, %110
  %117 = load i32, i32* %7, align 4
  %118 = load i32, i32* %2, align 4
  %119 = icmp slt i32 %117, %118
  br i1 %119, label %120, label %155

120:                                              ; preds = %116
  %121 = load i32, i32* %7, align 4
  %122 = sext i32 %121 to i64
  %123 = getelementptr inbounds [100000 x i32], [100000 x i32]* %3, i64 0, i64 %122
  %124 = load i32, i32* %123, align 4
  %125 = load i32, i32* %11, align 4
  %126 = icmp eq i32 %124, %125
  br i1 %126, label %134, label %127

127:                                              ; preds = %120
  %128 = load i32, i32* %7, align 4
  %129 = sext i32 %128 to i64
  %130 = getelementptr inbounds [100000 x i32], [100000 x i32]* %3, i64 0, i64 %129
  %131 = load i32, i32* %130, align 4
  %132 = load i32, i32* %12, align 4
  %133 = icmp eq i32 %131, %132
  br i1 %133, label %134, label %135

134:                                              ; preds = %127, %120
  br label %152

135:                                              ; preds = %127
  %136 = load i32, i32* %7, align 4
  %137 = sext i32 %136 to i64
  %138 = getelementptr inbounds [100000 x i32], [100000 x i32]* %6, i64 0, i64 %137
  %139 = load i32, i32* %138, align 4
  %140 = load i32, i32* %10, align 4
  %141 = icmp sgt i32 %139, %140
  br i1 %141, label %142, label %151

142:                                              ; preds = %135
  %143 = load i32, i32* %7, align 4
  %144 = sext i32 %143 to i64
  %145 = getelementptr inbounds [100000 x i32], [100000 x i32]* %6, i64 0, i64 %144
  %146 = load i32, i32* %145, align 4
  store i32 %146, i32* %10, align 4
  %147 = load i32, i32* %7, align 4
  %148 = sext i32 %147 to i64
  %149 = getelementptr inbounds [100000 x i32], [100000 x i32]* %3, i64 0, i64 %148
  %150 = load i32, i32* %149, align 4
  store i32 %150, i32* %13, align 4
  br label %151

151:                                              ; preds = %142, %135
  br label %152

152:                                              ; preds = %151, %134
  %153 = load i32, i32* %7, align 4
  %154 = add nsw i32 %153, 1
  store i32 %154, i32* %7, align 4
  br label %116

155:                                              ; preds = %116
  %156 = load i32, i32* %13, align 4
  %157 = load i32, i32* %10, align 4
  %158 = call i32 (i8*, ...) @printf(i8* getelementptr inbounds ([7 x i8], [7 x i8]* @.str.2, i64 0, i64 0), i32 %156, i32 %157)
  ret i32 0
}

declare dso_local i32 @__isoc99_scanf(i8*, ...) #1

declare dso_local i32 @printf(i8*, ...) #1


!llvm.module.flags = !{!0}
!llvm.ident = !{!1}

!0 = !{i32 1, !"wchar_size", i32 4}
!1 = !{!"clang version 10.0.0-4ubuntu1 "}
